Certificate:
    Data:
        Version: 3 (0x2)
        Serial Number: 4101 (0x1005)
    Signature Algorithm: sha256WithRSAEncryption
        Issuer: C=FR, ST=IDF, L=Paris, O=Local NODE-OPCUA Certificate Authority, CN=NodeOPCUA-CA
        Validity
            Not Before: Jul 10 10:15:19 2018 GMT
            Not After : Jul 10 10:15:19 2019 GMT
        Subject: C=FR, O=NodeOPCUA, CN=NodeOPCUA
        Subject Public Key Info:
            Public Key Algorithm: rsaEncryption
                Public-Key: (2048 bit)
                Modulus:
                    00:b9:f0:38:b0:6d:d2:ff:73:dd:dc:0f:80:15:a6:
                    f5:5b:a2:5f:9c:43:eb:fb:bb:35:e2:e6:c7:58:02:
                    13:5c:46:0a:57:6d:20:02:84:39:17:2e:ed:37:83:
                    4c:b2:5b:40:ce:17:5d:2a:83:74:b5:77:84:8c:0e:
                    11:db:a1:25:cd:b4:b5:36:77:c3:76:21:09:16:a8:
                    12:b5:1b:ad:c8:84:fc:13:8a:5f:78:59:e6:fa:a4:
                    a0:52:81:dd:43:48:4c:b9:fc:12:4b:9c:1f:e8:12:
                    ce:04:a4:38:fc:1c:ee:4d:b7:cc:57:06:2d:97:9b:
                    bb:da:17:d1:23:27:91:9d:e7:f1:ac:b5:e8:05:f4:
                    1c:42:e8:36:66:33:60:44:1d:c2:18:29:70:76:8e:
                    52:d4:8c:47:d3:f8:ca:7f:f0:d6:b2:51:f5:16:2f:
                    4b:78:70:a7:fb:48:0e:c1:40:90:84:21:d3:43:48:
                    6f:f9:0c:29:5b:55:30:ee:ae:a1:f6:49:1c:1d:fe:
                    ed:51:1e:fc:09:53:b4:43:46:b3:d8:83:4a:ab:4b:
                    ac:bc:bd:4a:d0:23:f1:e5:97:77:e8:7b:85:53:5b:
                    18:58:be:4e:df:e3:ef:92:60:a8:4f:50:eb:25:32:
                    da:7a:90:9a:b3:b5:77:b9:7d:5f:4a:02:61:51:d4:
                    1f:e9
                Exponent: 65537 (0x10001)
        X509v3 extensions:
            X509v3 Basic Constraints: critical
                CA:FALSE
            X509v3 Subject Key Identifier: 
                5A:57:C3:89:97:7A:7B:2D:28:E9:F0:5E:BA:92:A6:DE:36:A7:A8:A0
            X509v3 Authority Key Identifier: 
                keyid:3C:0F:DF:51:F0:1C:0B:5E:BC:A2:62:C0:78:E8:BE:85:54:07:87:B5
                DirName:/C=FR/ST=IDF/L=Paris/O=Local NODE-OPCUA Certificate Authority/CN=NodeOPCUA-CA
                serial:BE:DC:EE:A2:60:32:06:A2

            X509v3 Subject Alternative Name: 
                URI:urn:JAKOBSDESKTOP:NodeOPCUA-Client, DNS:localhost, DNS:JAKOBSDESKTOP
            Netscape Comment: 
                OpenSSL Generated Certificate
            X509v3 Key Usage: critical
                Digital Signature, Non Repudiation, Key Encipherment, Data Encipherment, Key Agreement, Certificate Sign
            X509v3 Extended Key Usage: critical
                TLS Web Server Authentication, TLS Web Client Authentication
    Signature Algorithm: sha256WithRSAEncryption
         90:e6:3b:73:76:c9:7d:98:63:54:39:b1:b8:4e:76:b9:f7:7e:
         7d:c3:cf:46:27:d2:16:7b:b7:72:cf:35:9e:7f:b8:54:e5:29:
         a0:9e:7e:1c:4b:d8:9c:78:ea:54:94:e1:7d:4c:ce:e2:65:ce:
         15:e3:ad:7f:30:4c:b8:8b:2d:5e:de:9d:d7:8e:5e:39:5a:9d:
         9e:7f:78:ca:4a:4f:12:d5:34:19:d7:29:cb:78:66:44:bd:83:
         03:9e:10:2b:44:6a:3b:47:c2:1c:6d:53:45:dd:9e:95:ea:97:
         52:8a:77:62:01:f2:8f:5d:ec:41:5a:c2:f8:1e:8b:45:f0:95:
         e3:64:17:8a:94:92:ab:9e:be:88:59:82:2f:ac:71:68:e5:dd:
         fa:18:71:4a:5e:1f:c3:26:b4:bd:22:aa:56:8a:a9:23:61:c1:
         0a:5c:ab:41:11:78:34:01:f5:d8:bd:01:01:b9:e9:a9:79:d5:
         38:96:be:ea:b2:a5:22:90:67:25:84:12:a7:9f:cd:4e:3a:af:
         60:1b:5f:68:1c:e7:fd:7b:0b:f3:76:7f:98:cf:42:ac:0b:26:
         81:91:fb:03:db:43:a0:5f:b1:4b:1a:bb:ee:f9:1e:ab:3c:41:
         51:81:3b:cc:3c:ca:70:e4:e4:cf:34:8c:6a:cc:71:4b:6d:5c:
         8d:3f:63:d7
-----BEGIN CERTIFICATE-----
MIIErDCCA5SgAwIBAgICEAUwDQYJKoZIhvcNAQELBQAwczELMAkGA1UEBhMCRlIx
DDAKBgNVBAgTA0lERjEOMAwGA1UEBxMFUGFyaXMxLzAtBgNVBAoTJkxvY2FsIE5P
REUtT1BDVUEgQ2VydGlmaWNhdGUgQXV0aG9yaXR5MRUwEwYDVQQDEwxOb2RlT1BD
VUEtQ0EwIhgPMjAxODA3MTAxMDE1MTlaGA8yMDE5MDcxMDEwMTUxOVowNTELMAkG
A1UEBhMCRlIxEjAQBgNVBAoMCU5vZGVPUENVQTESMBAGA1UEAwwJTm9kZU9QQ1VB
MIIBIjANBgkqhkiG9w0BAQEFAAOCAQ8AMIIBCgKCAQEAufA4sG3S/3Pd3A+AFab1
W6JfnEPr+7s14ubHWAITXEYKV20gAoQ5Fy7tN4NMsltAzhddKoN0tXeEjA4R26El
zbS1NnfDdiEJFqgStRutyIT8E4pfeFnm+qSgUoHdQ0hMufwSS5wf6BLOBKQ4/Bzu
TbfMVwYtl5u72hfRIyeRnefxrLXoBfQcQug2ZjNgRB3CGClwdo5S1IxH0/jKf/DW
slH1Fi9LeHCn+0gOwUCQhCHTQ0hv+QwpW1Uw7q6h9kkcHf7tUR78CVO0Q0az2INK
q0usvL1K0CPx5Zd36HuFU1sYWL5O3+PvkmCoT1DrJTLaepCas7V3uX1fSgJhUdQf
6QIDAQABo4IBgjCCAX4wDAYDVR0TAQH/BAIwADAdBgNVHQ4EFgQUWlfDiZd6ey0o
6fBeupKm3janqKAwgaUGA1UdIwSBnTCBmoAUPA/fUfAcC168omLAeOi+hVQHh7Wh
d6R1MHMxCzAJBgNVBAYTAkZSMQwwCgYDVQQIEwNJREYxDjAMBgNVBAcTBVBhcmlz
MS8wLQYDVQQKEyZMb2NhbCBOT0RFLU9QQ1VBIENlcnRpZmljYXRlIEF1dGhvcml0
eTEVMBMGA1UEAxMMTm9kZU9QQ1VBLUNBggkAvtzuomAyBqIwRwYDVR0RBEAwPoYi
dXJuOkpBS09CU0RFU0tUT1A6Tm9kZU9QQ1VBLUNsaWVudIIJbG9jYWxob3N0gg1K
QUtPQlNERVNLVE9QMCwGCWCGSAGG+EIBDQQfFh1PcGVuU1NMIEdlbmVyYXRlZCBD
ZXJ0aWZpY2F0ZTAOBgNVHQ8BAf8EBAMCAvwwIAYDVR0lAQH/BBYwFAYIKwYBBQUH
AwEGCCsGAQUFBwMCMA0GCSqGSIb3DQEBCwUAA4IBAQCQ5jtzdsl9mGNUObG4Tna5
9359w89GJ9IWe7dyzzWef7hU5Smgnn4cS9iceOpUlOF9TM7iZc4V461/MEy4iy1e
3p3Xjl45Wp2ef3jKSk8S1TQZ1ynLeGZEvYMDnhArRGo7R8IcbVNF3Z6V6pdSindi
AfKPXexBWsL4HotF8JXjZBeKlJKrnr6IWYIvrHFo5d36GHFKXh/DJrS9IqpWiqkj
YcEKXKtBEXg0AfXYvQEBuempedU4lr7qsqUikGclhBKnn81OOq9gG19oHOf9ewvz
dn+Yz0KsCyaBkfsD20OgX7FLGrvu+R6rPEFRgTvMPMpw5OTPNIxqzHFLbVyNP2PX
-----END CERTIFICATE-----
-----BEGIN CERTIFICATE-----
MIIE3TCCA8WgAwIBAgIJAL7c7qJgMgaiMA0GCSqGSIb3DQEBCwUAMHMxCzAJBgNV
BAYTAkZSMQwwCgYDVQQIEwNJREYxDjAMBgNVBAcTBVBhcmlzMS8wLQYDVQQKEyZM
b2NhbCBOT0RFLU9QQ1VBIENlcnRpZmljYXRlIEF1dGhvcml0eTEVMBMGA1UEAxMM
Tm9kZU9QQ1VBLUNBMB4XDTE4MDcxMTEwMTUyMFoXDTI4MDcwODEwMTUyMFowczEL
MAkGA1UEBhMCRlIxDDAKBgNVBAgTA0lERjEOMAwGA1UEBxMFUGFyaXMxLzAtBgNV
BAoTJkxvY2FsIE5PREUtT1BDVUEgQ2VydGlmaWNhdGUgQXV0aG9yaXR5MRUwEwYD
VQQDEwxOb2RlT1BDVUEtQ0EwggEiMA0GCSqGSIb3DQEBAQUAA4IBDwAwggEKAoIB
AQCkJ2KFQJyvlVsW1r+2gR5bwako9I0ayEqZMwDh4R1LMZhLxgtyxr5bhjGWHp/H
WofF2OPNnVVl2a9eeLo4gZST+XzBgeWur3zIPU5Ut7Umfoz6/NOCxxMjd4Y7fhyv
jkylKiTqnq3e2trfI2Z3mrAeC3oh7n1PQ/FOdPJdnh3+8+Zpzm5wzOUIqyJQTB4C
v6Jfg35ms9ZrEvw0EhrswVPJNuavSxU23LpsNwv7Ar+1snZVwZLpx5Zs/JOByqRc
EidENioE6uNzGzJKf4r8gE1DBHczWmT3wDbGQUx+pF0Omag7SG5HucYahpx6J+mI
aCIOzB4N15WpAGsgxyEQdF6vAgMBAAGjggFyMIIBbjAdBgNVHQ4EFgQUPA/fUfAc
C168omLAeOi+hVQHh7UwgaUGA1UdIwSBnTCBmoAUPA/fUfAcC168omLAeOi+hVQH
h7Whd6R1MHMxCzAJBgNVBAYTAkZSMQwwCgYDVQQIEwNJREYxDjAMBgNVBAcTBVBh
cmlzMS8wLQYDVQQKEyZMb2NhbCBOT0RFLU9QQ1VBIENlcnRpZmljYXRlIEF1dGhv
cml0eTEVMBMGA1UEAxMMTm9kZU9QQ1VBLUNBggkAvtzuomAyBqIwDAYDVR0TBAUw
AwEB/zAOBgNVHQ8BAf8EBAMCAQYwVwYJYIZIAYb4QgENBEoWSENBIENlcnRpZmlj
YXRlIGdlbmVyYXRlZCBieSBOb2RlLU9QQ1VBIENlcnRpZmljYXRlIHV0aWxpdHkg
dXNpbmcgb3BlbnNzbDAuBgNVHR8EJzAlMCOgIaAfhh1odHRwOi8vbG9jYWxob3N0
Ojg5MDAvY3JsLnBlbTANBgkqhkiG9w0BAQsFAAOCAQEAD/yL35n6SDP6ZEsG4RFB
8mXFoeIGltKNW+CEPr+sGmN9TfA55xeDqd4RiseNJ76/pvDbN986pY6jLwdpQvEV
qMLHf7+prn0h4N77a6FZBz8KKNMjyxrL1apqQ+jhpfX7mB/APfNEQGFlkmA0WWUr
XbfEvUcMrS8CmfHECBR6KISCqRq+TaqBJfnDOoX0Kubp/atJ/GjzupcAvzYa+z9m
4BawufaErbj+NklLMpkacvTUP4YTWi4pXwtCx82SZpYa5GGGBaJgj85V8BRMOjat
9TRXhW359cM1vXTvnyYpjJqTo1YJkePN3UVsNxOpnW7s6iopOiO3rLj9tVfXKl48
kA==
-----END CERTIFICATE-----
