Certificate:
    Data:
        Version: 3 (0x2)
        Serial Number: 4102 (0x1006)
    Signature Algorithm: sha256WithRSAEncryption
        Issuer: O=AIS, CN=AIS_Demonstrator_HMI_Applikation
        Validity
            Not Before: Jul 10 10:15:19 2018 GMT
            Not After : Jul 10 10:15:19 2019 GMT
        Subject: O=AIS, CN=AIS_Demonstrator_HMI_Applikation
        Subject Public Key Info:
            Public Key Algorithm: rsaEncryption
                Public-Key: (2048 bit)
                Modulus:
                    00:b9:f0:38:b0:6d:d2:ff:73:dd:dc:0f:80:15:a6:
                    f5:5b:a2:5f:9c:43:eb:fb:bb:35:e2:e6:c7:58:02:
                    13:5c:46:0a:57:6d:20:02:84:39:17:2e:ed:37:83:
                    4c:b2:5b:40:ce:17:5d:2a:83:74:b5:77:84:8c:0e:
                    11:db:a1:25:cd:b4:b5:36:77:c3:76:21:09:16:a8:
                    12:b5:1b:ad:c8:84:fc:13:8a:5f:78:59:e6:fa:a4:
                    a0:52:81:dd:43:48:4c:b9:fc:12:4b:9c:1f:e8:12:
                    ce:04:a4:38:fc:1c:ee:4d:b7:cc:57:06:2d:97:9b:
                    bb:da:17:d1:23:27:91:9d:e7:f1:ac:b5:e8:05:f4:
                    1c:42:e8:36:66:33:60:44:1d:c2:18:29:70:76:8e:
                    52:d4:8c:47:d3:f8:ca:7f:f0:d6:b2:51:f5:16:2f:
                    4b:78:70:a7:fb:48:0e:c1:40:90:84:21:d3:43:48:
                    6f:f9:0c:29:5b:55:30:ee:ae:a1:f6:49:1c:1d:fe:
                    ed:51:1e:fc:09:53:b4:43:46:b3:d8:83:4a:ab:4b:
                    ac:bc:bd:4a:d0:23:f1:e5:97:77:e8:7b:85:53:5b:
                    18:58:be:4e:df:e3:ef:92:60:a8:4f:50:eb:25:32:
                    da:7a:90:9a:b3:b5:77:b9:7d:5f:4a:02:61:51:d4:
                    1f:e9
                Exponent: 65537 (0x10001)
        X509v3 extensions:
            X509v3 Basic Constraints: critical
                CA:FALSE
            X509v3 Subject Key Identifier: 
                5A:57:C3:89:97:7A:7B:2D:28:E9:F0:5E:BA:92:A6:DE:36:A7:A8:A0
            X509v3 Authority Key Identifier: 
                keyid:5A:57:C3:89:97:7A:7B:2D:28:E9:F0:5E:BA:92:A6:DE:36:A7:A8:A0
                DirName:/O=NodeOPCUA/CN=NodeOPCUA
                serial:10:06

            X509v3 Subject Alternative Name: 
                URI:urn:JAKOBSDESKTOP:NodeOPCUA-Client, DNS:localhost, DNS:JAKOBSDESKTOP
            Netscape Comment: 
                OpenSSL Generated Certificate
            X509v3 Key Usage: critical
                Digital Signature, Non Repudiation, Key Encipherment, Data Encipherment, Key Agreement, Certificate Sign
            X509v3 Extended Key Usage: critical
                TLS Web Server Authentication, TLS Web Client Authentication
    Signature Algorithm: sha256WithRSAEncryption
         37:be:6e:85:05:09:a4:21:63:24:81:40:8e:f3:9a:a3:45:0f:
         4b:c1:4b:62:97:a5:9b:dd:54:f1:10:70:dc:a6:f3:68:ca:29:
         f9:b4:3e:f3:15:25:f8:fc:76:54:d6:e3:8b:40:0a:6c:ed:4c:
         1a:89:2a:55:5f:7a:26:5a:a4:78:ff:53:40:b3:69:0b:7d:1b:
         59:7e:61:00:6b:ca:ab:44:ec:3a:3e:ac:30:37:bf:34:c3:31:
         94:83:f9:38:b4:9c:1b:88:72:5a:6d:d8:83:a8:95:5b:3b:49:
         41:ae:d0:ed:fd:06:c9:b0:2e:86:77:28:95:61:98:a7:51:eb:
         44:7e:1b:15:0e:9c:f5:48:0a:8b:3e:eb:00:2e:bc:fd:0d:95:
         5f:78:81:b7:4f:76:8a:1e:16:75:0d:8d:35:07:56:eb:44:ae:
         b9:de:6d:72:1b:59:02:63:0e:80:58:3b:82:fa:d7:b7:b1:13:
         32:75:0e:88:f1:a8:81:91:04:bf:99:63:83:5a:c9:7a:85:48:
         9e:5c:bd:bc:5d:33:ed:75:67:73:5d:7c:2c:b4:49:0a:9c:bb:
         86:90:d0:0c:4e:d1:61:79:b5:f7:b1:bc:e1:70:85:91:a5:24:
         fd:e3:a5:65:7f:9f:de:6b:35:45:24:7d:ba:6e:40:ef:18:91:
         1f:de:c4:33
-----BEGIN CERTIFICATE-----
MIID/zCCAuegAwIBAgICEAYwDQYJKoZIhvcNAQELBQAwKDESMBAGA1UEChMJTm9k
ZU9QQ1VBMRIwEAYDVQQDEwlOb2RlT1BDVUEwIhgPMjAxODA3MTAxMDE1MTlaGA8y
MDE5MDcxMDEwMTUxOVowKDESMBAGA1UEChMJTm9kZU9QQ1VBMRIwEAYDVQQDEwlO
b2RlT1BDVUEwggEiMA0GCSqGSIb3DQEBAQUAA4IBDwAwggEKAoIBAQC58DiwbdL/
c93cD4AVpvVbol+cQ+v7uzXi5sdYAhNcRgpXbSAChDkXLu03g0yyW0DOF10qg3S1
d4SMDhHboSXNtLU2d8N2IQkWqBK1G63IhPwTil94Web6pKBSgd1DSEy5/BJLnB/o
Es4EpDj8HO5Nt8xXBi2Xm7vaF9EjJ5Gd5/GstegF9BxC6DZmM2BEHcIYKXB2jlLU
jEfT+Mp/8NayUfUWL0t4cKf7SA7BQJCEIdNDSG/5DClbVTDurqH2SRwd/u1RHvwJ
U7RDRrPYg0qrS6y8vUrQI/Hll3foe4VTWxhYvk7f4++SYKhPUOslMtp6kJqztXe5
fV9KAmFR1B/pAgMBAAGjggEtMIIBKTAMBgNVHRMBAf8EAjAAMB0GA1UdDgQWBBRa
V8OJl3p7LSjp8F66kqbeNqeooDBRBgNVHSMESjBIgBRaV8OJl3p7LSjp8F66kqbe
NqeooKEspCowKDESMBAGA1UEChMJTm9kZU9QQ1VBMRIwEAYDVQQDEwlOb2RlT1BD
VUGCAhAGMEcGA1UdEQRAMD6GInVybjpKQUtPQlNERVNLVE9QOk5vZGVPUENVQS1D
bGllbnSCCWxvY2FsaG9zdIINSkFLT0JTREVTS1RPUDAsBglghkgBhvhCAQ0EHxYd
T3BlblNTTCBHZW5lcmF0ZWQgQ2VydGlmaWNhdGUwDgYDVR0PAQH/BAQDAgL8MCAG
A1UdJQEB/wQWMBQGCCsGAQUFBwMBBggrBgEFBQcDAjANBgkqhkiG9w0BAQsFAAOC
AQEAN75uhQUJpCFjJIFAjvOao0UPS8FLYpelm91U8RBw3KbzaMop+bQ+8xUl+Px2
VNbji0AKbO1MGokqVV96JlqkeP9TQLNpC30bWX5hAGvKq0TsOj6sMDe/NMMxlIP5
OLScG4hyWm3Yg6iVWztJQa7Q7f0GybAuhncolWGYp1HrRH4bFQ6c9UgKiz7rAC68
/Q2VX3iBt092ih4WdQ2NNQdW60Suud5tchtZAmMOgFg7gvrXt7ETMnUOiPGogZEE
v5ljg1rJeoVInly9vF0z7XVnc118LLRJCpy7hpDQDE7RYXm197G84XCFkaUk/eOl
ZX+f3ms1RSR9um5A7xiRH97EMw==
-----END CERTIFICATE-----
