Certificate:
    Data:
        Version: 3 (0x2)
        Serial Number: 4131 (0x1023)
    Signature Algorithm: sha256WithRSAEncryption
        Issuer: O=NodeOPCUA, CN=NodeOPCUA
        Validity
            Not Before: Jul 10 11:12:13 2018 GMT
            Not After : Jul 10 11:12:13 2019 GMT
        Subject: O=NodeOPCUA, CN=NodeOPCUA
        Subject Public Key Info:
            Public Key Algorithm: rsaEncryption
                Public-Key: (2048 bit)
                Modulus:
                    00:b6:e6:30:fc:8e:ca:b2:f2:c3:26:ed:2c:45:60:
                    80:e3:16:c1:c0:c7:99:5d:d8:77:53:eb:95:f8:c6:
                    cd:f4:f2:15:73:88:7e:38:07:16:81:1e:b1:36:6b:
                    e6:ad:d7:19:38:81:af:72:01:c5:dd:60:7b:e9:2a:
                    87:80:10:ef:b2:ae:8d:d8:66:5d:c7:c7:b0:02:4c:
                    e0:b4:ec:ac:cc:09:49:d3:81:2f:91:1a:6c:9a:d0:
                    83:cc:27:44:3a:ce:81:4d:5d:d2:62:ab:16:9c:3d:
                    a0:10:1a:41:78:16:6f:16:e4:a2:77:0c:ae:06:68:
                    68:83:c2:ec:2d:dc:24:63:fe:c5:4f:29:03:e2:5b:
                    16:6c:5e:14:3a:6e:cf:19:88:df:02:37:bc:ff:5a:
                    7c:f6:13:7f:b0:11:1e:b2:2e:91:b7:ca:f8:e4:60:
                    db:3c:ec:86:01:e3:a6:4a:a0:66:36:0f:3d:a7:08:
                    b3:66:cd:cb:3d:73:94:69:7a:b4:73:b5:29:d8:0e:
                    70:93:7a:df:b0:9c:7a:dc:49:d7:e3:33:d7:4f:92:
                    2c:f8:f3:7b:aa:c7:fb:75:45:77:d9:cf:e4:c2:a1:
                    2f:b3:da:0e:95:6c:e3:ea:2d:b8:c1:e4:76:e5:72:
                    85:7b:ca:de:e6:82:70:68:7c:d1:48:ba:4b:98:c0:
                    94:e1
                Exponent: 65537 (0x10001)
        X509v3 extensions:
            X509v3 Basic Constraints: critical
                CA:FALSE
            X509v3 Subject Key Identifier: 
                BA:87:DD:04:49:85:E9:81:69:17:BC:21:AA:3E:40:4A:45:9A:99:1A
            X509v3 Authority Key Identifier: 
                keyid:BA:87:DD:04:49:85:E9:81:69:17:BC:21:AA:3E:40:4A:45:9A:99:1A
                DirName:/O=NodeOPCUA/CN=NodeOPCUA
                serial:10:23

            X509v3 Subject Alternative Name: 
                URI:urn:JAKOBSDESKTOP:NodeOPCUA-Server, DNS:localhost, DNS:JAKOBSDESKTOP
            Netscape Comment: 
                OpenSSL Generated Certificate
            X509v3 Key Usage: critical
                Digital Signature, Non Repudiation, Key Encipherment, Data Encipherment, Key Agreement, Certificate Sign
            X509v3 Extended Key Usage: critical
                TLS Web Server Authentication, TLS Web Client Authentication
    Signature Algorithm: sha256WithRSAEncryption
         36:37:59:5b:45:e1:e2:ce:cc:37:6a:3f:ec:cb:e5:29:5e:7c:
         0a:38:1b:ce:cc:09:34:2f:14:3a:2d:9f:1f:35:6c:a7:8b:19:
         cc:25:9d:c4:d9:fd:c8:66:72:db:5f:fa:bf:70:43:8c:19:8a:
         d6:4a:5b:81:95:22:02:fe:56:ac:f5:09:f8:76:97:a8:89:66:
         fd:a7:89:c9:f8:8a:11:cc:b1:76:c8:2f:c0:68:d8:1c:ba:a7:
         20:d9:64:bb:be:72:6d:82:6d:a0:1b:4b:53:02:36:5c:14:0a:
         15:9e:3e:f1:ec:e3:29:d2:76:5d:e5:03:78:a5:c3:64:e7:fa:
         73:57:7d:90:c2:cf:5a:95:17:2b:5b:ce:11:49:2b:bd:36:13:
         4c:6e:e3:dd:90:78:26:ef:a0:46:73:de:7e:1e:6f:7c:04:b0:
         ac:09:81:9b:92:29:e2:00:93:34:08:22:17:09:fd:d3:e2:35:
         e0:29:6d:3e:09:93:bb:a5:a4:25:4f:5f:9a:a4:35:a9:30:b6:
         d8:c2:9e:ab:5b:e6:e3:ea:22:df:f2:00:5d:07:c6:7d:10:13:
         5f:4f:00:2b:87:17:1c:68:56:db:2f:c8:3c:63:19:cb:a3:fa:
         af:ef:4b:da:9b:87:2a:dd:27:33:96:7b:55:02:ca:0c:12:74:
         ef:f1:7a:38
-----BEGIN CERTIFICATE-----
MIID/zCCAuegAwIBAgICECMwDQYJKoZIhvcNAQELBQAwKDESMBAGA1UEChMJTm9k
ZU9QQ1VBMRIwEAYDVQQDEwlOb2RlT1BDVUEwIhgPMjAxODA3MTAxMTEyMTNaGA8y
MDE5MDcxMDExMTIxM1owKDESMBAGA1UEChMJTm9kZU9QQ1VBMRIwEAYDVQQDEwlO
b2RlT1BDVUEwggEiMA0GCSqGSIb3DQEBAQUAA4IBDwAwggEKAoIBAQC25jD8jsqy
8sMm7SxFYIDjFsHAx5ld2HdT65X4xs308hVziH44BxaBHrE2a+at1xk4ga9yAcXd
YHvpKoeAEO+yro3YZl3Hx7ACTOC07KzMCUnTgS+RGmya0IPMJ0Q6zoFNXdJiqxac
PaAQGkF4Fm8W5KJ3DK4GaGiDwuwt3CRj/sVPKQPiWxZsXhQ6bs8ZiN8CN7z/Wnz2
E3+wER6yLpG3yvjkYNs87IYB46ZKoGY2Dz2nCLNmzcs9c5RperRztSnYDnCTet+w
nHrcSdfjM9dPkiz483uqx/t1RXfZz+TCoS+z2g6VbOPqLbjB5HblcoV7yt7mgnBo
fNFIukuYwJThAgMBAAGjggEtMIIBKTAMBgNVHRMBAf8EAjAAMB0GA1UdDgQWBBS6
h90ESYXpgWkXvCGqPkBKRZqZGjBRBgNVHSMESjBIgBS6h90ESYXpgWkXvCGqPkBK
RZqZGqEspCowKDESMBAGA1UEChMJTm9kZU9QQ1VBMRIwEAYDVQQDEwlOb2RlT1BD
VUGCAhAjMEcGA1UdEQRAMD6GInVybjpKQUtPQlNERVNLVE9QOk5vZGVPUENVQS1T
ZXJ2ZXKCCWxvY2FsaG9zdIINSkFLT0JTREVTS1RPUDAsBglghkgBhvhCAQ0EHxYd
T3BlblNTTCBHZW5lcmF0ZWQgQ2VydGlmaWNhdGUwDgYDVR0PAQH/BAQDAgL8MCAG
A1UdJQEB/wQWMBQGCCsGAQUFBwMBBggrBgEFBQcDAjANBgkqhkiG9w0BAQsFAAOC
AQEANjdZW0Xh4s7MN2o/7MvlKV58CjgbzswJNC8UOi2fHzVsp4sZzCWdxNn9yGZy
21/6v3BDjBmK1kpbgZUiAv5WrPUJ+HaXqIlm/aeJyfiKEcyxdsgvwGjYHLqnINlk
u75ybYJtoBtLUwI2XBQKFZ4+8ezjKdJ2XeUDeKXDZOf6c1d9kMLPWpUXK1vOEUkr
vTYTTG7j3ZB4Ju+gRnPefh5vfASwrAmBm5Ip4gCTNAgiFwn90+I14CltPgmTu6Wk
JU9fmqQ1qTC22MKeq1vm4+oi3/IAXQfGfRATX08AK4cXHGhW2y/IPGMZy6P6r+9L
2puHKt0nM5Z7VQLKDBJ07/F6OA==
-----END CERTIFICATE-----
